target datalayout = "e-m:e-p270:32:32-p271:32:32-p272:64:64-i64:64-i128:128-f80:128-n8:16:32:64-S128"
target triple = "x86_64-pc-linux-gnu"

%struct.__sigset_t = type { [16 x i64] }
%struct.sigaction = type { %union.anon, %struct.__sigset_t, i32, ptr }
%union.anon = type { ptr }

; Function Attrs: nounwind uwtable
define internal void @IgnoreSignal(i32 noundef %0) #0 {
  %2 = alloca i32, align 4
  %3 = alloca %struct.sigaction, align 8
  store i32 %0, ptr %2, align 4
  call void @llvm.lifetime.start.p0(i64 152, ptr %3) #9
  %4 = call i32 @sigaction(i32 noundef 13, ptr noundef null, ptr noundef %3) #9
  %5 = getelementptr inbounds nuw %struct.sigaction, ptr %3, i32 0, i32 0
  %6 = load ptr, ptr %5, align 8
  %7 = icmp eq ptr %6, null
  br i1 %7, label %8, label %16

8:                                                ; preds = %1
  %9 = getelementptr inbounds nuw %struct.sigaction, ptr %3, i32 0, i32 0
  %10 = load ptr, ptr %9, align 8
  %11 = icmp eq ptr %10, null
  br i1 %11, label %12, label %16

12:                                               ; preds = %8
  %13 = getelementptr inbounds nuw %struct.sigaction, ptr %3, i32 0, i32 0
  store ptr inttoptr (i64 1 to ptr), ptr %13, align 8
  %14 = load i32, ptr %2, align 4
  %15 = call i32 @sigaction(i32 noundef %14, ptr noundef %3, ptr noundef null) #9
  br label %16

16:                                               ; preds = %12, %8, %1
  call void @llvm.lifetime.end.p0(i64 152, ptr %3) #9
  ret void
}

; Function Attrs: nounwind uwtable
define internal zeroext i1 @CreatePipe(ptr noundef %0) #0 {
  %2 = alloca i1, align 1
  %3 = alloca ptr, align 8
  store ptr %0, ptr %3, align 8
  %4 = load ptr, ptr %3, align 8
  %5 = call i32 @pipe(ptr noundef %4) #9
  %6 = icmp slt i32 %5, 0
  br i1 %6, label %7, label %8

7:                                                ; preds = %1
  store i1 false, ptr %2, align 1
  br label %27

8:                                                ; preds = %1
  %9 = load ptr, ptr %3, align 8
  %10 = getelementptr inbounds i32, ptr %9, i64 0
  %11 = load i32, ptr %10, align 4
  %12 = load ptr, ptr %3, align 8
  %13 = getelementptr inbounds i32, ptr %12, i64 0
  %14 = load i32, ptr %13, align 4
  %15 = call i32 (i32, i32, ...) @fcntl(i32 noundef %14, i32 noundef 1)
  %16 = or i32 %15, 1
  %17 = call i32 (i32, i32, ...) @fcntl(i32 noundef %11, i32 noundef 2, i32 noundef %16)
  %18 = load ptr, ptr %3, align 8
  %19 = getelementptr inbounds i32, ptr %18, i64 1
  %20 = load i32, ptr %19, align 4
  %21 = load ptr, ptr %3, align 8
  %22 = getelementptr inbounds i32, ptr %21, i64 1
  %23 = load i32, ptr %22, align 4
  %24 = call i32 (i32, i32, ...) @fcntl(i32 noundef %23, i32 noundef 1)
  %25 = or i32 %24, 1
  %26 = call i32 (i32, i32, ...) @fcntl(i32 noundef %20, i32 noundef 2, i32 noundef %25)
  call void @IgnoreSignal(i32 noundef 13)
  store i1 true, ptr %2, align 1
  br label %27

27:                                               ; preds = %8, %7
  %28 = load i1, ptr %2, align 1
  ret i1 %28
}