; Function Attrs: nounwind uwtable
define internal fastcc noundef zeroext i1 @CreatePipe(ptr noundef nonnull %0) unnamed_addr #0 {
  %2 = alloca %struct.sigaction, align 8
  %3 = tail call i32 @pipe(ptr noundef nonnull %0) #10
  %4 = icmp sgt i32 %3, -1
  br i1 %4, label %5, label %20

5:                                                ; preds = %1
  %6 = load i32, ptr %0, align 4
  %7 = tail call i32 (i32, i32, ...) @fcntl(i32 noundef %6, i32 noundef 1) #10
  %8 = or i32 %7, 1
  %9 = tail call i32 (i32, i32, ...) @fcntl(i32 noundef %6, i32 noundef 2, i32 noundef %8) #10
  %10 = getelementptr inbounds nuw i8, ptr %0, i64 4
  %11 = load i32, ptr %10, align 4
  %12 = tail call i32 (i32, i32, ...) @fcntl(i32 noundef %11, i32 noundef 1) #10
  %13 = or i32 %12, 1
  %14 = tail call i32 (i32, i32, ...) @fcntl(i32 noundef %11, i32 noundef 2, i32 noundef %13) #10
  call void @llvm.lifetime.start.p0(i64 152, ptr nonnull %2) #10
  %15 = call i32 @sigaction(i32 noundef 13, ptr noundef null, ptr noundef nonnull %2) #10
  %16 = load ptr, ptr %2, align 8
  %17 = icmp eq ptr %16, null
  br i1 %17, label %18, label %IgnoreSignal.exit

18:                                               ; preds = %5
  store ptr inttoptr (i64 1 to ptr), ptr %2, align 8
  %19 = call i32 @sigaction(i32 noundef 13, ptr noundef nonnull %2, ptr noundef null) #10
  br label %IgnoreSignal.exit

IgnoreSignal.exit:                                ; preds = %5, %18
  call void @llvm.lifetime.end.p0(i64 152, ptr nonnull %2) #10
  br label %20

20:                                               ; preds = %1, %IgnoreSignal.exit
  ret i1 %4
}